target datalayout = "e-m:e-p270:32:32-p271:32:32-p272:64:64-i64:64-i128:128-f80:128-n8:16:32:64-S128"
target triple = "x86_64-pc-linux-gnu"

%struct.Dch_Cla_t_ = type { ptr, ptr, ptr, i32, i32, i32, ptr, ptr, ptr, ptr, ptr, ptr, ptr, ptr }

; Function Attrs: nounwind uwtable
define void @Dch_ClassesSetData(ptr noundef %0, ptr noundef %1, ptr noundef %2, ptr noundef %3, ptr noundef %4) #0 {
  %6 = alloca ptr, align 8
  %7 = alloca ptr, align 8
  %8 = alloca ptr, align 8
  %9 = alloca ptr, align 8
  %10 = alloca ptr, align 8
  store ptr %0, ptr %6, align 8, !tbaa !8
  store ptr %1, ptr %7, align 8, !tbaa !37
  store ptr %2, ptr %8, align 8, !tbaa !37
  store ptr %3, ptr %9, align 8, !tbaa !37
  store ptr %4, ptr %10, align 8, !tbaa !37
  %11 = load ptr, ptr %7, align 8, !tbaa !37
  %12 = load ptr, ptr %6, align 8, !tbaa !8
  %13 = getelementptr inbounds nuw %struct.Dch_Cla_t_, ptr %12, i32 0, i32 10
  store ptr %11, ptr %13, align 8, !tbaa !38
  %14 = load ptr, ptr %8, align 8, !tbaa !37
  %15 = load ptr, ptr %6, align 8, !tbaa !8
  %16 = getelementptr inbounds nuw %struct.Dch_Cla_t_, ptr %15, i32 0, i32 11
  store ptr %14, ptr %16, align 8, !tbaa !39
  %17 = load ptr, ptr %9, align 8, !tbaa !37
  %18 = load ptr, ptr %6, align 8, !tbaa !8
  %19 = getelementptr inbounds nuw %struct.Dch_Cla_t_, ptr %18, i32 0, i32 12
  store ptr %17, ptr %19, align 8, !tbaa !40
  %20 = load ptr, ptr %10, align 8, !tbaa !37
  %21 = load ptr, ptr %6, align 8, !tbaa !8
  %22 = getelementptr inbounds nuw %struct.Dch_Cla_t_, ptr %21, i32 0, i32 13
  store ptr %20, ptr %22, align 8, !tbaa !41
  ret void
}