; Function Attrs: mustprogress nofree norecurse nosync nounwind willreturn memory(argmem: write) uwtable
define void @Dch_ClassesSetData(ptr noundef writeonly captures(none) initializes((72, 104)) %0, ptr noundef %1, ptr noundef %2, ptr noundef %3, ptr noundef %4) local_unnamed_addr #5 {
  %6 = getelementptr inbounds nuw i8, ptr %0, i64 72
  store ptr %1, ptr %6, align 8, !tbaa !32
  %7 = getelementptr inbounds nuw i8, ptr %0, i64 80
  store ptr %2, ptr %7, align 8, !tbaa !33
  %8 = getelementptr inbounds nuw i8, ptr %0, i64 88
  store ptr %3, ptr %8, align 8, !tbaa !34
  %9 = getelementptr inbounds nuw i8, ptr %0, i64 96
  store ptr %4, ptr %9, align 8, !tbaa !35
  ret void
}